; Function Attrs: mustprogress nounwind willreturn uwtable
define noundef i64 @ZBUFFv04_freeDCtx(ptr noundef captures(address_is_null) %0) local_unnamed_addr #7 {
  %2 = icmp eq ptr %0, null
  br i1 %2, label %ZBUFF_freeDCtx.exit, label %3

3:                                                ; preds = %1
  %4 = load ptr, ptr %0, align 8, !tbaa !24
  tail call void @free(ptr noundef %4) #22
  %5 = getelementptr inbounds nuw i8, ptr %0, i64 40
  %6 = load ptr, ptr %5, align 8, !tbaa !27
  tail call void @free(ptr noundef %6) #22
  %7 = getelementptr inbounds nuw i8, ptr %0, i64 64
  %8 = load ptr, ptr %7, align 8, !tbaa !28
  tail call void @free(ptr noundef %8) #22
  tail call void @free(ptr noundef nonnull %0) #22
  br label %ZBUFF_freeDCtx.exit

ZBUFF_freeDCtx.exit:                              ; preds = %1, %3
  ret i64 0
}